target datalayout = "e-m:e-p270:32:32-p271:32:32-p272:64:64-i64:64-i128:128-f80:128-n8:16:32:64-S128"
target triple = "x86_64-pc-linux-gnu"

; Function Attrs: nounwind uwtable
define hidden i32 @mbedtls_hkdf_extract(ptr noundef %0, ptr noundef %1, i64 noundef %2, ptr noundef %3, i64 noundef %4, ptr noundef %5) #0 {
  %7 = alloca i32, align 4
  %8 = alloca ptr, align 8
  %9 = alloca ptr, align 8
  %10 = alloca i64, align 8
  %11 = alloca ptr, align 8
  %12 = alloca i64, align 8
  %13 = alloca ptr, align 8
  %14 = alloca [64 x i8], align 16
  %15 = alloca i64, align 8
  %16 = alloca i32, align 4
  store ptr %0, ptr %8, align 8, !tbaa !3
  store ptr %1, ptr %9, align 8, !tbaa !8
  store i64 %2, ptr %10, align 8, !tbaa !10
  store ptr %3, ptr %11, align 8, !tbaa !8
  store i64 %4, ptr %12, align 8, !tbaa !10
  store ptr %5, ptr %13, align 8, !tbaa !8
  call void @llvm.lifetime.start.p0(i64 64, ptr %14) #5
  call void @llvm.memset.p0.i64(ptr align 16 %14, i8 0, i64 64, i1 false)
  %17 = load ptr, ptr %9, align 8, !tbaa !8
  %18 = icmp eq ptr %17, null
  br i1 %18, label %19, label %36

19:                                               ; preds = %6
  call void @llvm.lifetime.start.p0(i64 8, ptr %15) #5
  %20 = load i64, ptr %10, align 8, !tbaa !10
  %21 = icmp ne i64 %20, 0
  br i1 %21, label %22, label %23

22:                                               ; preds = %19
  store i32 -24448, ptr %7, align 4
  store i32 1, ptr %16, align 4
  br label %33

23:                                               ; preds = %19
  %24 = load ptr, ptr %8, align 8, !tbaa !3
  %25 = call zeroext i8 @mbedtls_md_get_size(ptr noundef %24)
  %26 = zext i8 %25 to i64
  store i64 %26, ptr %15, align 8, !tbaa !10
  %27 = load i64, ptr %15, align 8, !tbaa !10
  %28 = icmp eq i64 %27, 0
  br i1 %28, label %29, label %30

29:                                               ; preds = %23
  store i32 -24448, ptr %7, align 4
  store i32 1, ptr %16, align 4
  br label %33

30:                                               ; preds = %23
  %31 = getelementptr inbounds [64 x i8], ptr %14, i64 0, i64 0
  store ptr %31, ptr %9, align 8, !tbaa !8
  %32 = load i64, ptr %15, align 8, !tbaa !10
  store i64 %32, ptr %10, align 8, !tbaa !10
  store i32 0, ptr %16, align 4
  br label %33

33:                                               ; preds = %30, %29, %22
  call void @llvm.lifetime.end.p0(i64 8, ptr %15) #5
  %34 = load i32, ptr %16, align 4
  switch i32 %34, label %44 [
    i32 0, label %35
  ]

35:                                               ; preds = %33
  br label %36

36:                                               ; preds = %35, %6
  %37 = load ptr, ptr %8, align 8, !tbaa !3
  %38 = load ptr, ptr %9, align 8, !tbaa !8
  %39 = load i64, ptr %10, align 8, !tbaa !10
  %40 = load ptr, ptr %11, align 8, !tbaa !8
  %41 = load i64, ptr %12, align 8, !tbaa !10
  %42 = load ptr, ptr %13, align 8, !tbaa !8
  %43 = call i32 @mbedtls_md_hmac(ptr noundef %37, ptr noundef %38, i64 noundef %39, ptr noundef %40, i64 noundef %41, ptr noundef %42)
  store i32 %43, ptr %7, align 4
  store i32 1, ptr %16, align 4
  br label %44

44:                                               ; preds = %36, %33
  call void @llvm.lifetime.end.p0(i64 64, ptr %14) #5
  %45 = load i32, ptr %7, align 4
  ret i32 %45
}