; Function Attrs: nounwind uwtable
define hidden i32 @mbedtls_hkdf_extract(ptr noundef %0, ptr noundef %1, i64 noundef %2, ptr noundef %3, i64 noundef %4, ptr noundef %5) local_unnamed_addr #0 {
  %7 = alloca [64 x i8], align 16
  call void @llvm.lifetime.start.p0(i64 64, ptr nonnull %7) #5
  call void @llvm.memset.p0.i64(ptr noundef nonnull align 16 dereferenceable(64) %7, i8 0, i64 64, i1 false)
  %8 = icmp eq ptr %1, null
  br i1 %8, label %9, label %15

9:                                                ; preds = %6
  %.not = icmp eq i64 %2, 0
  br i1 %.not, label %10, label %.thread

10:                                               ; preds = %9
  %11 = tail call zeroext i8 @mbedtls_md_get_size(ptr noundef %0) #5
  %12 = icmp eq i8 %11, 0
  br i1 %12, label %.thread, label %13

13:                                               ; preds = %10
  %14 = zext i8 %11 to i64
  br label %15

15:                                               ; preds = %13, %6
  %.015 = phi i64 [ %14, %13 ], [ %2, %6 ]
  %.013 = phi ptr [ %7, %13 ], [ %1, %6 ]
  %16 = call i32 @mbedtls_md_hmac(ptr noundef %0, ptr noundef nonnull %.013, i64 noundef %.015, ptr noundef %3, i64 noundef %4, ptr noundef %5) #5
  br label %.thread

.thread:                                          ; preds = %10, %9, %15
  %.1 = phi i32 [ %16, %15 ], [ -24448, %9 ], [ -24448, %10 ]
  call void @llvm.lifetime.end.p0(i64 64, ptr nonnull %7) #5
  ret i32 %.1
}